; Function Attrs: nounwind uwtable
define dso_local range(i64 0, 4294967296) i64 @text_regclass(ptr noundef readonly captures(none) %0) local_unnamed_addr #0 {
  %2 = getelementptr inbounds nuw i8, ptr %0, i64 32
  %3 = load i64, ptr %2, align 8
  %4 = inttoptr i64 %3 to ptr
  %5 = tail call ptr @pg_detoast_datum_packed(ptr noundef %4) #9
  %6 = tail call ptr @textToQualifiedNameList(ptr noundef %5) #9
  %7 = tail call ptr @makeRangeVarFromNameList(ptr noundef %6) #9
  %8 = tail call i32 @RangeVarGetRelidExtended(ptr noundef %7, i32 noundef 0, i32 noundef 0, ptr noundef null, ptr noundef null) #9
  %9 = zext i32 %8 to i64
  ret i64 %9
}